target datalayout = "e-m:e-p270:32:32-p271:32:32-p272:64:64-i64:64-i128:128-f80:128-n8:16:32:64-S128"
target triple = "x86_64-pc-linux-gnu"

%struct._lv_draw_image_dsc_t = type { %struct.lv_draw_dsc_base_t, ptr, %struct.lv_image_header_t, i32, i32, i32, i32, i32, %struct.lv_point_t, %struct.lv_color_t, i8, i8, i8, ptr, %struct.lv_area_t, i32, ptr }
%struct.lv_draw_dsc_base_t = type { ptr, i32, i32, i32, ptr, i64, ptr }
%struct.lv_image_header_t = type <{ i64, i32 }>
%struct.lv_point_t = type { i32, i32 }
%struct.lv_color_t = type { i8, i8, i8 }
%struct.lv_area_t = type { i32, i32, i32, i32 }

; Function Attrs: nounwind uwtable
define void @lv_draw_sw_image(ptr noundef %0, ptr noundef %1, ptr noundef %2) #0 {
  %4 = alloca ptr, align 8
  %5 = alloca ptr, align 8
  %6 = alloca ptr, align 8
  store ptr %0, ptr %4, align 8, !tbaa !3
  store ptr %1, ptr %5, align 8, !tbaa !3
  store ptr %2, ptr %6, align 8, !tbaa !3
  %7 = load ptr, ptr %5, align 8, !tbaa !3
  %8 = getelementptr inbounds nuw %struct._lv_draw_image_dsc_t, ptr %7, i32 0, i32 12
  %9 = load i8, ptr %8, align 1
  %10 = lshr i8 %9, 5
  %11 = and i8 %10, 1
  %12 = zext i8 %11 to i16
  %13 = icmp ne i16 %12, 0
  br i1 %13, label %18, label %14

14:                                               ; preds = %3
  %15 = load ptr, ptr %4, align 8, !tbaa !3
  %16 = load ptr, ptr %5, align 8, !tbaa !3
  %17 = load ptr, ptr %6, align 8, !tbaa !3
  call void @lv_draw_image_normal_helper(ptr noundef %15, ptr noundef %16, ptr noundef %17, ptr noundef @img_draw_core)
  br label %22

18:                                               ; preds = %3
  %19 = load ptr, ptr %4, align 8, !tbaa !3
  %20 = load ptr, ptr %5, align 8, !tbaa !3
  %21 = load ptr, ptr %6, align 8, !tbaa !3
  call void @lv_draw_image_tiled_helper(ptr noundef %19, ptr noundef %20, ptr noundef %21, ptr noundef @img_draw_core)
  br label %22

22:                                               ; preds = %18, %14
  ret void
}