; Function Attrs: nounwind uwtable
define void @lv_draw_sw_image(ptr noundef %0, ptr noundef %1, ptr noundef %2) local_unnamed_addr #0 {
  %4 = getelementptr inbounds nuw i8, ptr %1, i64 101
  %5 = load i8, ptr %4, align 1
  %6 = and i8 %5, 32
  %.not = icmp eq i8 %6, 0
  br i1 %.not, label %7, label %8

7:                                                ; preds = %3
  tail call void @lv_draw_image_normal_helper(ptr noundef %0, ptr noundef nonnull %1, ptr noundef %2, ptr noundef nonnull @img_draw_core) #5
  br label %9

8:                                                ; preds = %3
  tail call void @lv_draw_image_tiled_helper(ptr noundef %0, ptr noundef nonnull %1, ptr noundef %2, ptr noundef nonnull @img_draw_core) #5
  br label %9

9:                                                ; preds = %8, %7
  ret void
}